target datalayout = "e-m:e-p270:32:32-p271:32:32-p272:64:64-i64:64-i128:128-f80:128-n8:16:32:64-S128"
target triple = "x86_64-pc-linux-gnu"

%struct.ItemPointerData = type { %struct.BlockIdData, i16 }
%struct.BlockIdData = type { i16, i16 }
%struct.ScanKeyData = type { i32, i16, i16, i32, i32, %struct.FmgrInfo, i64 }
%struct.FmgrInfo = type { ptr, i32, i16, i8, i8, i8, ptr, ptr, ptr }
%struct.FormData_pg_depend = type { i32, i32, i32, i32, i32, i32, i8 }
%struct.HeapTupleData = type { i32, %struct.ItemPointerData, i32, ptr }
%struct.HeapTupleHeaderData = type { %union.anon, %struct.ItemPointerData, i16, i16, i8, [0 x i8] }
%union.anon = type { %struct.HeapTupleFields }
%struct.HeapTupleFields = type { i32, i32, %union.anon.0 }
%union.anon.0 = type { i32 }

; Function Attrs: inlinehint nounwind uwtable
define internal ptr @GETSTRUCT(ptr noundef %0) #3 {
  %2 = alloca ptr, align 8
  store ptr %0, ptr %2, align 8
  %3 = load ptr, ptr %2, align 8
  %4 = getelementptr inbounds nuw %struct.HeapTupleData, ptr %3, i32 0, i32 3
  %5 = load ptr, ptr %4, align 8
  %6 = load ptr, ptr %2, align 8
  %7 = getelementptr inbounds nuw %struct.HeapTupleData, ptr %6, i32 0, i32 3
  %8 = load ptr, ptr %7, align 8
  %9 = getelementptr inbounds nuw %struct.HeapTupleHeaderData, ptr %8, i32 0, i32 4
  %10 = load i8, ptr %9, align 2
  %11 = zext i8 %10 to i32
  %12 = sext i32 %11 to i64
  %13 = getelementptr inbounds i8, ptr %5, i64 %12
  ret ptr %13
}

; Function Attrs: inlinehint nounwind uwtable
define internal i64 @ObjectIdGetDatum(i32 noundef %0) #3 {
  %2 = alloca i32, align 4
  store i32 %0, ptr %2, align 4
  %3 = load i32, ptr %2, align 4
  %4 = zext i32 %3 to i64
  ret i64 %4
}

; Function Attrs: nounwind uwtable
define dso_local i64 @deleteDependencyRecordsForSpecific(i32 noundef %0, i32 noundef %1, i8 noundef signext %2, i32 noundef %3, i32 noundef %4) #0 {
  %6 = alloca i32, align 4
  %7 = alloca i32, align 4
  %8 = alloca i8, align 1
  %9 = alloca i32, align 4
  %10 = alloca i32, align 4
  %11 = alloca i64, align 8
  %12 = alloca ptr, align 8
  %13 = alloca [2 x %struct.ScanKeyData], align 16
  %14 = alloca ptr, align 8
  %15 = alloca ptr, align 8
  %16 = alloca ptr, align 8
  store i32 %0, ptr %6, align 4
  store i32 %1, ptr %7, align 4
  store i8 %2, ptr %8, align 1
  store i32 %3, ptr %9, align 4
  store i32 %4, ptr %10, align 4
  call void @llvm.lifetime.start.p0(i64 8, ptr %11) #6
  store i64 0, ptr %11, align 8
  call void @llvm.lifetime.start.p0(i64 8, ptr %12) #6
  call void @llvm.lifetime.start.p0(i64 144, ptr %13) #6
  call void @llvm.lifetime.start.p0(i64 8, ptr %14) #6
  call void @llvm.lifetime.start.p0(i64 8, ptr %15) #6
  %17 = call ptr @table_open(i32 noundef 2608, i32 noundef 3)
  store ptr %17, ptr %12, align 8
  %18 = getelementptr inbounds [2 x %struct.ScanKeyData], ptr %13, i64 0, i64 0
  %19 = load i32, ptr %6, align 4
  %20 = call i64 @ObjectIdGetDatum(i32 noundef %19)
  call void @ScanKeyInit(ptr noundef %18, i16 noundef signext 1, i16 noundef zeroext 3, i32 noundef 184, i64 noundef %20)
  %21 = getelementptr inbounds [2 x %struct.ScanKeyData], ptr %13, i64 0, i64 1
  %22 = load i32, ptr %7, align 4
  %23 = call i64 @ObjectIdGetDatum(i32 noundef %22)
  call void @ScanKeyInit(ptr noundef %21, i16 noundef signext 2, i16 noundef zeroext 3, i32 noundef 184, i64 noundef %23)
  %24 = load ptr, ptr %12, align 8
  %25 = getelementptr inbounds [2 x %struct.ScanKeyData], ptr %13, i64 0, i64 0
  %26 = call ptr @systable_beginscan(ptr noundef %24, i32 noundef 2673, i1 noundef zeroext true, ptr noundef null, i32 noundef 2, ptr noundef %25)
  store ptr %26, ptr %14, align 8
  br label %27

27:                                               ; preds = %59, %5
  %28 = load ptr, ptr %14, align 8
  %29 = call ptr @systable_getnext(ptr noundef %28)
  store ptr %29, ptr %15, align 8
  %30 = icmp ne ptr %29, null
  br i1 %30, label %31, label %60

31:                                               ; preds = %27
  call void @llvm.lifetime.start.p0(i64 8, ptr %16) #6
  %32 = load ptr, ptr %15, align 8
  %33 = call ptr @GETSTRUCT(ptr noundef %32)
  store ptr %33, ptr %16, align 8
  %34 = load ptr, ptr %16, align 8
  %35 = getelementptr inbounds nuw %struct.FormData_pg_depend, ptr %34, i32 0, i32 3
  %36 = load i32, ptr %35, align 4
  %37 = load i32, ptr %9, align 4
  %38 = icmp eq i32 %36, %37
  br i1 %38, label %39, label %59

39:                                               ; preds = %31
  %40 = load ptr, ptr %16, align 8
  %41 = getelementptr inbounds nuw %struct.FormData_pg_depend, ptr %40, i32 0, i32 4
  %42 = load i32, ptr %41, align 4
  %43 = load i32, ptr %10, align 4
  %44 = icmp eq i32 %42, %43
  br i1 %44, label %45, label %59

45:                                               ; preds = %39
  %46 = load ptr, ptr %16, align 8
  %47 = getelementptr inbounds nuw %struct.FormData_pg_depend, ptr %46, i32 0, i32 6
  %48 = load i8, ptr %47, align 4
  %49 = sext i8 %48 to i32
  %50 = load i8, ptr %8, align 1
  %51 = sext i8 %50 to i32
  %52 = icmp eq i32 %49, %51
  br i1 %52, label %53, label %59

53:                                               ; preds = %45
  %54 = load ptr, ptr %12, align 8
  %55 = load ptr, ptr %15, align 8
  %56 = getelementptr inbounds nuw %struct.HeapTupleData, ptr %55, i32 0, i32 1
  call void @CatalogTupleDelete(ptr noundef %54, ptr noundef %56)
  %57 = load i64, ptr %11, align 8
  %58 = add i64 %57, 1
  store i64 %58, ptr %11, align 8
  br label %59

59:                                               ; preds = %53, %45, %39, %31
  call void @llvm.lifetime.end.p0(i64 8, ptr %16) #6
  br label %27, !llvm.loop !12

60:                                               ; preds = %27
  %61 = load ptr, ptr %14, align 8
  call void @systable_endscan(ptr noundef %61)
  %62 = load ptr, ptr %12, align 8
  call void @table_close(ptr noundef %62, i32 noundef 3)
  %63 = load i64, ptr %11, align 8
  call void @llvm.lifetime.end.p0(i64 8, ptr %15) #6
  call void @llvm.lifetime.end.p0(i64 8, ptr %14) #6
  call void @llvm.lifetime.end.p0(i64 144, ptr %13) #6
  call void @llvm.lifetime.end.p0(i64 8, ptr %12) #6
  call void @llvm.lifetime.end.p0(i64 8, ptr %11) #6
  ret i64 %63
}