; Function Attrs: nounwind uwtable
define dso_local i64 @deleteDependencyRecordsForSpecific(i32 noundef %0, i32 noundef %1, i8 noundef signext %2, i32 noundef %3, i32 noundef %4) local_unnamed_addr #0 {
  %6 = alloca [2 x %struct.ScanKeyData], align 16
  call void @llvm.lifetime.start.p0(i64 144, ptr nonnull %6) #7
  %7 = tail call ptr @table_open(i32 noundef 2608, i32 noundef 3) #7
  %8 = zext i32 %0 to i64
  call void @ScanKeyInit(ptr noundef nonnull %6, i16 noundef signext 1, i16 noundef zeroext 3, i32 noundef 184, i64 noundef %8) #7
  %9 = getelementptr inbounds nuw i8, ptr %6, i64 72
  %10 = zext i32 %1 to i64
  call void @ScanKeyInit(ptr noundef nonnull %9, i16 noundef signext 2, i16 noundef zeroext 3, i32 noundef 184, i64 noundef %10) #7
  %11 = call ptr @systable_beginscan(ptr noundef %7, i32 noundef 2673, i1 noundef zeroext true, ptr noundef null, i32 noundef 2, ptr noundef nonnull %6) #7
  %12 = call ptr @systable_getnext(ptr noundef %11) #7
  %.not17 = icmp eq ptr %12, null
  br i1 %.not17, label %._crit_edge, label %.lr.ph

.lr.ph:                                           ; preds = %5, %33
  %13 = phi ptr [ %34, %33 ], [ %12, %5 ]
  %.018 = phi i64 [ %.1, %33 ], [ 0, %5 ]
  %14 = getelementptr i8, ptr %13, i64 16
  %.val = load ptr, ptr %14, align 8
  %15 = getelementptr inbounds nuw i8, ptr %.val, i64 22
  %16 = load i8, ptr %15, align 2
  %17 = zext i8 %16 to i64
  %18 = getelementptr inbounds nuw i8, ptr %.val, i64 %17
  %19 = getelementptr inbounds nuw i8, ptr %18, i64 12
  %20 = load i32, ptr %19, align 4
  %21 = icmp eq i32 %20, %3
  br i1 %21, label %22, label %33

22:                                               ; preds = %.lr.ph
  %23 = getelementptr inbounds nuw i8, ptr %18, i64 16
  %24 = load i32, ptr %23, align 4
  %25 = icmp eq i32 %24, %4
  br i1 %25, label %26, label %33

26:                                               ; preds = %22
  %27 = getelementptr inbounds nuw i8, ptr %18, i64 24
  %28 = load i8, ptr %27, align 4
  %29 = icmp eq i8 %28, %2
  br i1 %29, label %30, label %33

30:                                               ; preds = %26
  %31 = getelementptr inbounds nuw i8, ptr %13, i64 4
  call void @CatalogTupleDelete(ptr noundef %7, ptr noundef nonnull %31) #7
  %32 = add i64 %.018, 1
  br label %33

33:                                               ; preds = %30, %26, %22, %.lr.ph
  %.1 = phi i64 [ %32, %30 ], [ %.018, %26 ], [ %.018, %22 ], [ %.018, %.lr.ph ]
  %34 = call ptr @systable_getnext(ptr noundef %11) #7
  %.not = icmp eq ptr %34, null
  br i1 %.not, label %._crit_edge, label %.lr.ph, !llvm.loop !11

._crit_edge:                                      ; preds = %33, %5
  %.0.lcssa = phi i64 [ 0, %5 ], [ %.1, %33 ]
  call void @systable_endscan(ptr noundef %11) #7
  call void @table_close(ptr noundef %7, i32 noundef 3) #7
  call void @llvm.lifetime.end.p0(i64 144, ptr nonnull %6) #7
  ret i64 %.0.lcssa
}